target datalayout = "e-m:e-p270:32:32-p271:32:32-p272:64:64-i64:64-i128:128-f80:128-n8:16:32:64-S128"
target triple = "x86_64-pc-linux-gnu"

%struct.OSQPCscMatrix = type { i64, i64, ptr, ptr, ptr, i64, i64 }

; Function Attrs: nounwind uwtable
define void @update_KKT_A(ptr noundef %0, ptr noundef %1, ptr noundef %2, i64 noundef %3, ptr noundef %4) #0 {
  %6 = alloca ptr, align 8
  %7 = alloca ptr, align 8
  %8 = alloca ptr, align 8
  %9 = alloca i64, align 8
  %10 = alloca ptr, align 8
  %11 = alloca i64, align 8
  %12 = alloca i64, align 8
  %13 = alloca i64, align 8
  %14 = alloca i64, align 8
  %15 = alloca i32, align 4
  store ptr %0, ptr %6, align 8, !tbaa !3
  store ptr %1, ptr %7, align 8, !tbaa !3
  store ptr %2, ptr %8, align 8, !tbaa !13
  store i64 %3, ptr %9, align 8, !tbaa !7
  store ptr %4, ptr %10, align 8, !tbaa !13
  call void @llvm.lifetime.start.p0(i64 8, ptr %11) #3
  call void @llvm.lifetime.start.p0(i64 8, ptr %12) #3
  call void @llvm.lifetime.start.p0(i64 8, ptr %13) #3
  call void @llvm.lifetime.start.p0(i64 8, ptr %14) #3
  %16 = load i64, ptr %9, align 8, !tbaa !7
  %17 = icmp sle i64 %16, 0
  br i1 %17, label %18, label %19

18:                                               ; preds = %5
  store i32 1, ptr %15, align 4
  br label %59

19:                                               ; preds = %5
  %20 = load ptr, ptr %8, align 8, !tbaa !13
  %21 = icmp eq ptr %20, null
  %22 = select i1 %21, i32 1, i32 0
  %23 = sext i32 %22 to i64
  store i64 %23, ptr %14, align 8, !tbaa !7
  store i64 0, ptr %11, align 8, !tbaa !7
  br label %24

24:                                               ; preds = %55, %19
  %25 = load i64, ptr %11, align 8, !tbaa !7
  %26 = load i64, ptr %9, align 8, !tbaa !7
  %27 = icmp slt i64 %25, %26
  br i1 %27, label %28, label %58

28:                                               ; preds = %24
  %29 = load i64, ptr %14, align 8, !tbaa !7
  %30 = icmp ne i64 %29, 0
  br i1 %30, label %31, label %33

31:                                               ; preds = %28
  %32 = load i64, ptr %11, align 8, !tbaa !7
  br label %38

33:                                               ; preds = %28
  %34 = load ptr, ptr %8, align 8, !tbaa !13
  %35 = load i64, ptr %11, align 8, !tbaa !7
  %36 = getelementptr inbounds i64, ptr %34, i64 %35
  %37 = load i64, ptr %36, align 8, !tbaa !7
  br label %38

38:                                               ; preds = %33, %31
  %39 = phi i64 [ %32, %31 ], [ %37, %33 ]
  store i64 %39, ptr %12, align 8, !tbaa !7
  %40 = load ptr, ptr %10, align 8, !tbaa !13
  %41 = load i64, ptr %12, align 8, !tbaa !7
  %42 = getelementptr inbounds i64, ptr %40, i64 %41
  %43 = load i64, ptr %42, align 8, !tbaa !7
  store i64 %43, ptr %13, align 8, !tbaa !7
  %44 = load ptr, ptr %7, align 8, !tbaa !3
  %45 = getelementptr inbounds nuw %struct.OSQPCscMatrix, ptr %44, i32 0, i32 4
  %46 = load ptr, ptr %45, align 8, !tbaa !24
  %47 = load i64, ptr %12, align 8, !tbaa !7
  %48 = getelementptr inbounds double, ptr %46, i64 %47
  %49 = load double, ptr %48, align 8, !tbaa !9
  %50 = load ptr, ptr %6, align 8, !tbaa !3
  %51 = getelementptr inbounds nuw %struct.OSQPCscMatrix, ptr %50, i32 0, i32 4
  %52 = load ptr, ptr %51, align 8, !tbaa !24
  %53 = load i64, ptr %13, align 8, !tbaa !7
  %54 = getelementptr inbounds double, ptr %52, i64 %53
  store double %49, ptr %54, align 8, !tbaa !9
  br label %55

55:                                               ; preds = %38
  %56 = load i64, ptr %11, align 8, !tbaa !7
  %57 = add nsw i64 %56, 1
  store i64 %57, ptr %11, align 8, !tbaa !7
  br label %24, !llvm.loop !29

58:                                               ; preds = %24
  store i32 1, ptr %15, align 4
  br label %59

59:                                               ; preds = %58, %18
  call void @llvm.lifetime.end.p0(i64 8, ptr %14) #3
  call void @llvm.lifetime.end.p0(i64 8, ptr %13) #3
  call void @llvm.lifetime.end.p0(i64 8, ptr %12) #3
  call void @llvm.lifetime.end.p0(i64 8, ptr %11) #3
  ret void
}