; Function Attrs: nofree norecurse nosync nounwind memory(readwrite, inaccessiblemem: none) uwtable
define void @update_KKT_A(ptr noundef readonly captures(none) %0, ptr noundef readonly captures(none) %1, ptr noundef readonly captures(address_is_null) %2, i64 noundef %3, ptr noundef readonly captures(none) %4) local_unnamed_addr #2 {
  %6 = icmp slt i64 %3, 1
  br i1 %6, label %.loopexit, label %7

7:                                                ; preds = %5
  %8 = icmp eq ptr %2, null
  %9 = getelementptr inbounds nuw i8, ptr %1, i64 32
  %10 = load ptr, ptr %9, align 8, !tbaa !23
  %11 = getelementptr inbounds nuw i8, ptr %0, i64 32
  %12 = load ptr, ptr %11, align 8, !tbaa !23
  br i1 %8, label %.split.us, label %.split

.split.us:                                        ; preds = %7, %.split.us
  %.016.us = phi i64 [ %18, %.split.us ], [ 0, %7 ]
  %13 = getelementptr inbounds nuw i64, ptr %4, i64 %.016.us
  %14 = load i64, ptr %13, align 8, !tbaa !13
  %15 = getelementptr inbounds nuw double, ptr %10, i64 %.016.us
  %16 = load double, ptr %15, align 8, !tbaa !24
  %17 = getelementptr inbounds double, ptr %12, i64 %14
  store double %16, ptr %17, align 8, !tbaa !24
  %18 = add nuw nsw i64 %.016.us, 1
  %exitcond18.not = icmp eq i64 %18, %3
  br i1 %exitcond18.not, label %.loopexit, label %.split.us, !llvm.loop !34

.split:                                           ; preds = %7, %.split
  %.016 = phi i64 [ %26, %.split ], [ 0, %7 ]
  %19 = getelementptr inbounds nuw i64, ptr %2, i64 %.016
  %20 = load i64, ptr %19, align 8, !tbaa !13
  %21 = getelementptr inbounds i64, ptr %4, i64 %20
  %22 = load i64, ptr %21, align 8, !tbaa !13
  %23 = getelementptr inbounds double, ptr %10, i64 %20
  %24 = load double, ptr %23, align 8, !tbaa !24
  %25 = getelementptr inbounds double, ptr %12, i64 %22
  store double %24, ptr %25, align 8, !tbaa !24
  %26 = add nuw nsw i64 %.016, 1
  %exitcond.not = icmp eq i64 %26, %3
  br i1 %exitcond.not, label %.loopexit, label %.split, !llvm.loop !34

.loopexit:                                        ; preds = %.split, %.split.us, %5
  ret void
}